target datalayout = "e-m:e-p270:32:32-p271:32:32-p272:64:64-i64:64-i128:128-f80:128-n8:16:32:64-S128"
target triple = "x86_64-pc-linux-gnu"

%struct._GPtrArray = type { ptr, i32 }

@all_uats = internal global ptr null, align 8

; Function Attrs: null_pointer_is_valid sspstrong uwtable
define void @uat_foreach_table(ptr noundef %0, ptr noundef %1) #0 {
  %3 = alloca ptr, align 8
  %4 = alloca ptr, align 8
  %5 = alloca i32, align 4
  store ptr %0, ptr %3, align 8
  store ptr %1, ptr %4, align 8
  call void @llvm.lifetime.start.p0(i64 4, ptr %5) #13
  store i32 0, ptr %5, align 4
  br label %6

6:                                                ; preds = %22, %2
  %7 = load i32, ptr %5, align 4
  %8 = load ptr, ptr @all_uats, align 8
  %9 = getelementptr inbounds nuw %struct._GPtrArray, ptr %8, i32 0, i32 1
  %10 = load i32, ptr %9, align 8
  %11 = icmp ult i32 %7, %10
  br i1 %11, label %12, label %25

12:                                               ; preds = %6
  %13 = load ptr, ptr %3, align 8
  %14 = load ptr, ptr @all_uats, align 8
  %15 = getelementptr inbounds nuw %struct._GPtrArray, ptr %14, i32 0, i32 0
  %16 = load ptr, ptr %15, align 8
  %17 = load i32, ptr %5, align 4
  %18 = zext i32 %17 to i64
  %19 = getelementptr ptr, ptr %16, i64 %18
  %20 = load ptr, ptr %19, align 8
  %21 = load ptr, ptr %4, align 8
  call void %13(ptr noundef %20, ptr noundef %21)
  br label %22

22:                                               ; preds = %12
  %23 = load i32, ptr %5, align 4
  %24 = add i32 %23, 1
  store i32 %24, ptr %5, align 4
  br label %6, !llvm.loop !29

25:                                               ; preds = %6
  call void @llvm.lifetime.end.p0(i64 4, ptr %5) #13
  ret void
}