; Function Attrs: null_pointer_is_valid sspstrong uwtable
define void @uat_foreach_table(ptr noundef readonly captures(none) %0, ptr noundef %1) local_unnamed_addr #0 {
  %3 = load ptr, ptr @all_uats, align 8
  %4 = getelementptr inbounds nuw i8, ptr %3, i64 8
  %5 = load i32, ptr %4, align 8
  %.not = icmp eq i32 %5, 0
  br i1 %.not, label %._crit_edge, label %.lr.ph

.lr.ph:                                           ; preds = %2, %.lr.ph
  %indvars.iv = phi i64 [ %indvars.iv.next, %.lr.ph ], [ 0, %2 ]
  %6 = phi ptr [ %10, %.lr.ph ], [ %3, %2 ]
  %7 = load ptr, ptr %6, align 8
  %8 = getelementptr ptr, ptr %7, i64 %indvars.iv
  %9 = load ptr, ptr %8, align 8
  tail call void %0(ptr noundef %9, ptr noundef %1)
  %indvars.iv.next = add nuw nsw i64 %indvars.iv, 1
  %10 = load ptr, ptr @all_uats, align 8
  %11 = getelementptr inbounds nuw i8, ptr %10, i64 8
  %12 = load i32, ptr %11, align 8
  %13 = zext i32 %12 to i64
  %14 = icmp samesign ult i64 %indvars.iv.next, %13
  br i1 %14, label %.lr.ph, label %._crit_edge, !llvm.loop !30

._crit_edge:                                      ; preds = %.lr.ph, %2
  ret void
}